target datalayout = "e-m:e-p270:32:32-p271:32:32-p272:64:64-i64:64-i128:128-f80:128-n8:16:32:64-S128"
target triple = "x86_64-pc-linux-gnu"

%struct.AVDictionaryEntry = type { ptr, ptr }
%struct.AVMetadataConv = type { ptr, ptr }

; Function Attrs: nounwind uwtable
define void @ff_metadata_conv(ptr noundef %0, ptr noundef %1, ptr noundef %2) #0 {
  %4 = alloca ptr, align 8
  %5 = alloca ptr, align 8
  %6 = alloca ptr, align 8
  %7 = alloca ptr, align 8
  %8 = alloca ptr, align 8
  %9 = alloca ptr, align 8
  %10 = alloca ptr, align 8
  %11 = alloca ptr, align 8
  %12 = alloca i32, align 4
  store ptr %0, ptr %4, align 8, !tbaa !4
  store ptr %1, ptr %5, align 8, !tbaa !10
  store ptr %2, ptr %6, align 8, !tbaa !10
  call void @llvm.lifetime.start.p0(i64 8, ptr %7) #3
  call void @llvm.lifetime.start.p0(i64 8, ptr %8) #3
  call void @llvm.lifetime.start.p0(i64 8, ptr %9) #3
  store ptr null, ptr %9, align 8, !tbaa !12
  call void @llvm.lifetime.start.p0(i64 8, ptr %10) #3
  store ptr null, ptr %10, align 8, !tbaa !14
  call void @llvm.lifetime.start.p0(i64 8, ptr %11) #3
  %13 = load ptr, ptr %5, align 8, !tbaa !10
  %14 = load ptr, ptr %6, align 8, !tbaa !10
  %15 = icmp eq ptr %13, %14
  br i1 %15, label %19, label %16

16:                                               ; preds = %3
  %17 = load ptr, ptr %4, align 8, !tbaa !4
  %18 = icmp ne ptr %17, null
  br i1 %18, label %20, label %19

19:                                               ; preds = %16, %3
  store i32 1, ptr %12, align 4
  br label %92

20:                                               ; preds = %16
  br label %21

21:                                               ; preds = %82, %20
  %22 = load ptr, ptr %4, align 8, !tbaa !4
  %23 = load ptr, ptr %22, align 8, !tbaa !14
  %24 = load ptr, ptr %9, align 8, !tbaa !12
  %25 = call ptr @av_dict_iterate(ptr noundef %23, ptr noundef %24)
  store ptr %25, ptr %9, align 8, !tbaa !12
  %26 = icmp ne ptr %25, null
  br i1 %26, label %27, label %88

27:                                               ; preds = %21
  %28 = load ptr, ptr %9, align 8, !tbaa !12
  %29 = getelementptr inbounds nuw %struct.AVDictionaryEntry, ptr %28, i32 0, i32 0
  %30 = load ptr, ptr %29, align 8, !tbaa !16
  store ptr %30, ptr %11, align 8, !tbaa !19
  %31 = load ptr, ptr %6, align 8, !tbaa !10
  %32 = icmp ne ptr %31, null
  br i1 %32, label %33, label %56

33:                                               ; preds = %27
  %34 = load ptr, ptr %6, align 8, !tbaa !10
  store ptr %34, ptr %7, align 8, !tbaa !10
  br label %35

35:                                               ; preds = %52, %33
  %36 = load ptr, ptr %7, align 8, !tbaa !10
  %37 = getelementptr inbounds nuw %struct.AVMetadataConv, ptr %36, i32 0, i32 0
  %38 = load ptr, ptr %37, align 8, !tbaa !20
  %39 = icmp ne ptr %38, null
  br i1 %39, label %40, label %55

40:                                               ; preds = %35
  %41 = load ptr, ptr %11, align 8, !tbaa !19
  %42 = load ptr, ptr %7, align 8, !tbaa !10
  %43 = getelementptr inbounds nuw %struct.AVMetadataConv, ptr %42, i32 0, i32 0
  %44 = load ptr, ptr %43, align 8, !tbaa !20
  %45 = call i32 @av_strcasecmp(ptr noundef %41, ptr noundef %44)
  %46 = icmp ne i32 %45, 0
  br i1 %46, label %51, label %47

47:                                               ; preds = %40
  %48 = load ptr, ptr %7, align 8, !tbaa !10
  %49 = getelementptr inbounds nuw %struct.AVMetadataConv, ptr %48, i32 0, i32 1
  %50 = load ptr, ptr %49, align 8, !tbaa !22
  store ptr %50, ptr %11, align 8, !tbaa !19
  br label %55

51:                                               ; preds = %40
  br label %52

52:                                               ; preds = %51
  %53 = load ptr, ptr %7, align 8, !tbaa !10
  %54 = getelementptr inbounds nuw %struct.AVMetadataConv, ptr %53, i32 1
  store ptr %54, ptr %7, align 8, !tbaa !10
  br label %35, !llvm.loop !23

55:                                               ; preds = %47, %35
  br label %56

56:                                               ; preds = %55, %27
  %57 = load ptr, ptr %5, align 8, !tbaa !10
  %58 = icmp ne ptr %57, null
  br i1 %58, label %59, label %82

59:                                               ; preds = %56
  %60 = load ptr, ptr %5, align 8, !tbaa !10
  store ptr %60, ptr %8, align 8, !tbaa !10
  br label %61

61:                                               ; preds = %78, %59
  %62 = load ptr, ptr %8, align 8, !tbaa !10
  %63 = getelementptr inbounds nuw %struct.AVMetadataConv, ptr %62, i32 0, i32 0
  %64 = load ptr, ptr %63, align 8, !tbaa !20
  %65 = icmp ne ptr %64, null
  br i1 %65, label %66, label %81

66:                                               ; preds = %61
  %67 = load ptr, ptr %11, align 8, !tbaa !19
  %68 = load ptr, ptr %8, align 8, !tbaa !10
  %69 = getelementptr inbounds nuw %struct.AVMetadataConv, ptr %68, i32 0, i32 1
  %70 = load ptr, ptr %69, align 8, !tbaa !22
  %71 = call i32 @av_strcasecmp(ptr noundef %67, ptr noundef %70)
  %72 = icmp ne i32 %71, 0
  br i1 %72, label %77, label %73

73:                                               ; preds = %66
  %74 = load ptr, ptr %8, align 8, !tbaa !10
  %75 = getelementptr inbounds nuw %struct.AVMetadataConv, ptr %74, i32 0, i32 0
  %76 = load ptr, ptr %75, align 8, !tbaa !20
  store ptr %76, ptr %11, align 8, !tbaa !19
  br label %81

77:                                               ; preds = %66
  br label %78

78:                                               ; preds = %77
  %79 = load ptr, ptr %8, align 8, !tbaa !10
  %80 = getelementptr inbounds nuw %struct.AVMetadataConv, ptr %79, i32 1
  store ptr %80, ptr %8, align 8, !tbaa !10
  br label %61, !llvm.loop !25

81:                                               ; preds = %73, %61
  br label %82

82:                                               ; preds = %81, %56
  %83 = load ptr, ptr %11, align 8, !tbaa !19
  %84 = load ptr, ptr %9, align 8, !tbaa !12
  %85 = getelementptr inbounds nuw %struct.AVDictionaryEntry, ptr %84, i32 0, i32 1
  %86 = load ptr, ptr %85, align 8, !tbaa !26
  %87 = call i32 @av_dict_set(ptr noundef %10, ptr noundef %83, ptr noundef %86, i32 noundef 192)
  br label %21, !llvm.loop !27

88:                                               ; preds = %21
  %89 = load ptr, ptr %4, align 8, !tbaa !4
  call void @av_dict_free(ptr noundef %89)
  %90 = load ptr, ptr %10, align 8, !tbaa !14
  %91 = load ptr, ptr %4, align 8, !tbaa !4
  store ptr %90, ptr %91, align 8, !tbaa !14
  store i32 0, ptr %12, align 4
  br label %92

92:                                               ; preds = %88, %19
  call void @llvm.lifetime.end.p0(i64 8, ptr %11) #3
  call void @llvm.lifetime.end.p0(i64 8, ptr %10) #3
  call void @llvm.lifetime.end.p0(i64 8, ptr %9) #3
  call void @llvm.lifetime.end.p0(i64 8, ptr %8) #3
  call void @llvm.lifetime.end.p0(i64 8, ptr %7) #3
  %93 = load i32, ptr %12, align 4
  switch i32 %93, label %95 [
    i32 0, label %94
    i32 1, label %94
  ]

94:                                               ; preds = %92, %92
  ret void

95:                                               ; preds = %92
  unreachable
}