; Function Attrs: nounwind uwtable
define void @ff_metadata_conv(ptr noundef %0, ptr noundef readonly captures(address) %1, ptr noundef readonly captures(address) %2) local_unnamed_addr #0 {
  %4 = alloca ptr, align 8
  call void @llvm.lifetime.start.p0(i64 8, ptr nonnull %4) #3
  store ptr null, ptr %4, align 8, !tbaa !4
  %5 = icmp ne ptr %1, %2
  %6 = icmp ne ptr %0, null
  %or.cond = and i1 %6, %5
  br i1 %or.cond, label %.preheader40, label %74

.preheader40:                                     ; preds = %3
  %7 = load ptr, ptr %0, align 8, !tbaa !4
  %8 = tail call ptr @av_dict_iterate(ptr noundef %7, ptr noundef null) #3
  %.not48 = icmp eq ptr %8, null
  br i1 %.not48, label %._crit_edge, label %.lr.ph49

.lr.ph49:                                         ; preds = %.preheader40
  %.not32 = icmp eq ptr %2, null
  %.not35 = icmp eq ptr %1, null
  br i1 %.not35, label %.lr.ph49.split.us, label %.lr.ph49.split

.lr.ph49.split.us:                                ; preds = %.lr.ph49
  br i1 %.not32, label %.lr.ph49.split.us.split.us, label %.preheader38.us

.lr.ph49.split.us.split.us:                       ; preds = %.lr.ph49.split.us, %.lr.ph49.split.us.split.us
  %9 = phi ptr [ %15, %.lr.ph49.split.us.split.us ], [ %8, %.lr.ph49.split.us ]
  %10 = load ptr, ptr %9, align 8, !tbaa !9
  %11 = getelementptr inbounds nuw i8, ptr %9, i64 8
  %12 = load ptr, ptr %11, align 8, !tbaa !12
  %13 = call i32 @av_dict_set(ptr noundef nonnull %4, ptr noundef %10, ptr noundef %12, i32 noundef 192) #3
  %14 = load ptr, ptr %0, align 8, !tbaa !4
  %15 = call ptr @av_dict_iterate(ptr noundef %14, ptr noundef nonnull %9) #3
  %.not.us.us = icmp eq ptr %15, null
  br i1 %.not.us.us, label %._crit_edge, label %.lr.ph49.split.us.split.us, !llvm.loop !13

.preheader38.us:                                  ; preds = %.lr.ph49.split.us, %.loopexit39.us
  %16 = phi ptr [ %31, %.loopexit39.us ], [ %8, %.lr.ph49.split.us ]
  %17 = load ptr, ptr %16, align 8, !tbaa !9
  %18 = load ptr, ptr %2, align 8, !tbaa !15
  %.not3343.us = icmp eq ptr %18, null
  br i1 %.not3343.us, label %.loopexit39.us, label %.lr.ph.us

.lr.ph.us:                                        ; preds = %.preheader38.us, %21
  %19 = phi ptr [ %23, %21 ], [ %18, %.preheader38.us ]
  %.02744.us = phi ptr [ %22, %21 ], [ %2, %.preheader38.us ]
  %20 = call i32 @av_strcasecmp(ptr noundef %17, ptr noundef nonnull %19) #3
  %.not34.us = icmp eq i32 %20, 0
  br i1 %.not34.us, label %24, label %21

21:                                               ; preds = %.lr.ph.us
  %22 = getelementptr inbounds nuw i8, ptr %.02744.us, i64 16
  %23 = load ptr, ptr %22, align 8, !tbaa !15
  %.not33.us = icmp eq ptr %23, null
  br i1 %.not33.us, label %.loopexit39.us, label %.lr.ph.us, !llvm.loop !17

24:                                               ; preds = %.lr.ph.us
  %25 = getelementptr inbounds nuw i8, ptr %.02744.us, i64 8
  %26 = load ptr, ptr %25, align 8, !tbaa !18
  br label %.loopexit39.us

.loopexit39.us:                                   ; preds = %21, %.preheader38.us, %24
  %.0.us = phi ptr [ %26, %24 ], [ %17, %.preheader38.us ], [ %17, %21 ]
  %27 = getelementptr inbounds nuw i8, ptr %16, i64 8
  %28 = load ptr, ptr %27, align 8, !tbaa !12
  %29 = call i32 @av_dict_set(ptr noundef nonnull %4, ptr noundef %.0.us, ptr noundef %28, i32 noundef 192) #3
  %30 = load ptr, ptr %0, align 8, !tbaa !4
  %31 = call ptr @av_dict_iterate(ptr noundef %30, ptr noundef nonnull %16) #3
  %.not.us = icmp eq ptr %31, null
  br i1 %.not.us, label %._crit_edge, label %.preheader38.us, !llvm.loop !13

.lr.ph49.split:                                   ; preds = %.lr.ph49
  br i1 %.not32, label %.preheader.us, label %.preheader38

.preheader.us:                                    ; preds = %.lr.ph49.split, %.loopexit.us
  %32 = phi ptr [ %47, %.loopexit.us ], [ %8, %.lr.ph49.split ]
  %33 = load ptr, ptr %32, align 8, !tbaa !9
  %34 = load ptr, ptr %1, align 8, !tbaa !15
  %.not3645.us = icmp eq ptr %34, null
  br i1 %.not3645.us, label %.loopexit.us, label %.lr.ph47.us

.lr.ph47.us:                                      ; preds = %.preheader.us, %38
  %.02646.us = phi ptr [ %39, %38 ], [ %1, %.preheader.us ]
  %35 = getelementptr inbounds nuw i8, ptr %.02646.us, i64 8
  %36 = load ptr, ptr %35, align 8, !tbaa !18
  %37 = call i32 @av_strcasecmp(ptr noundef %33, ptr noundef %36) #3
  %.not37.us = icmp eq i32 %37, 0
  br i1 %.not37.us, label %41, label %38

38:                                               ; preds = %.lr.ph47.us
  %39 = getelementptr inbounds nuw i8, ptr %.02646.us, i64 16
  %40 = load ptr, ptr %39, align 8, !tbaa !15
  %.not36.us = icmp eq ptr %40, null
  br i1 %.not36.us, label %.loopexit.us, label %.lr.ph47.us, !llvm.loop !19

41:                                               ; preds = %.lr.ph47.us
  %42 = load ptr, ptr %.02646.us, align 8, !tbaa !15
  br label %.loopexit.us

.loopexit.us:                                     ; preds = %38, %.preheader.us, %41
  %.1.us51 = phi ptr [ %42, %41 ], [ %33, %.preheader.us ], [ %33, %38 ]
  %43 = getelementptr inbounds nuw i8, ptr %32, i64 8
  %44 = load ptr, ptr %43, align 8, !tbaa !12
  %45 = call i32 @av_dict_set(ptr noundef nonnull %4, ptr noundef %.1.us51, ptr noundef %44, i32 noundef 192) #3
  %46 = load ptr, ptr %0, align 8, !tbaa !4
  %47 = call ptr @av_dict_iterate(ptr noundef %46, ptr noundef nonnull %32) #3
  %.not.us52 = icmp eq ptr %47, null
  br i1 %.not.us52, label %._crit_edge, label %.preheader.us, !llvm.loop !13

.preheader38:                                     ; preds = %.lr.ph49.split, %.loopexit
  %48 = phi ptr [ %72, %.loopexit ], [ %8, %.lr.ph49.split ]
  %49 = load ptr, ptr %48, align 8, !tbaa !9
  %50 = load ptr, ptr %2, align 8, !tbaa !15
  %.not3343 = icmp eq ptr %50, null
  br i1 %.not3343, label %.preheader, label %.lr.ph

.lr.ph:                                           ; preds = %.preheader38, %56
  %51 = phi ptr [ %58, %56 ], [ %50, %.preheader38 ]
  %.02744 = phi ptr [ %57, %56 ], [ %2, %.preheader38 ]
  %52 = call i32 @av_strcasecmp(ptr noundef %49, ptr noundef nonnull %51) #3
  %.not34 = icmp eq i32 %52, 0
  br i1 %.not34, label %53, label %56

53:                                               ; preds = %.lr.ph
  %54 = getelementptr inbounds nuw i8, ptr %.02744, i64 8
  %55 = load ptr, ptr %54, align 8, !tbaa !18
  br label %.preheader

56:                                               ; preds = %.lr.ph
  %57 = getelementptr inbounds nuw i8, ptr %.02744, i64 16
  %58 = load ptr, ptr %57, align 8, !tbaa !15
  %.not33 = icmp eq ptr %58, null
  br i1 %.not33, label %.preheader, label %.lr.ph, !llvm.loop !17

.preheader:                                       ; preds = %56, %.preheader38, %53
  %.0 = phi ptr [ %55, %53 ], [ %49, %.preheader38 ], [ %49, %56 ]
  %59 = load ptr, ptr %1, align 8, !tbaa !15
  %.not3645 = icmp eq ptr %59, null
  br i1 %.not3645, label %.loopexit, label %.lr.ph47

.lr.ph47:                                         ; preds = %.preheader, %65
  %.02646 = phi ptr [ %66, %65 ], [ %1, %.preheader ]
  %60 = getelementptr inbounds nuw i8, ptr %.02646, i64 8
  %61 = load ptr, ptr %60, align 8, !tbaa !18
  %62 = call i32 @av_strcasecmp(ptr noundef %.0, ptr noundef %61) #3
  %.not37 = icmp eq i32 %62, 0
  br i1 %.not37, label %63, label %65

63:                                               ; preds = %.lr.ph47
  %64 = load ptr, ptr %.02646, align 8, !tbaa !15
  br label %.loopexit

65:                                               ; preds = %.lr.ph47
  %66 = getelementptr inbounds nuw i8, ptr %.02646, i64 16
  %67 = load ptr, ptr %66, align 8, !tbaa !15
  %.not36 = icmp eq ptr %67, null
  br i1 %.not36, label %.loopexit, label %.lr.ph47, !llvm.loop !19

.loopexit:                                        ; preds = %65, %.preheader, %63
  %.1 = phi ptr [ %64, %63 ], [ %.0, %.preheader ], [ %.0, %65 ]
  %68 = getelementptr inbounds nuw i8, ptr %48, i64 8
  %69 = load ptr, ptr %68, align 8, !tbaa !12
  %70 = call i32 @av_dict_set(ptr noundef nonnull %4, ptr noundef %.1, ptr noundef %69, i32 noundef 192) #3
  %71 = load ptr, ptr %0, align 8, !tbaa !4
  %72 = call ptr @av_dict_iterate(ptr noundef %71, ptr noundef nonnull %48) #3
  %.not = icmp eq ptr %72, null
  br i1 %.not, label %._crit_edge, label %.preheader38, !llvm.loop !13

._crit_edge:                                      ; preds = %.loopexit, %.loopexit.us, %.loopexit39.us, %.lr.ph49.split.us.split.us, %.preheader40
  call void @av_dict_free(ptr noundef nonnull %0) #3
  %73 = load ptr, ptr %4, align 8, !tbaa !4
  store ptr %73, ptr %0, align 8, !tbaa !4
  br label %74

74:                                               ; preds = %3, %._crit_edge
  call void @llvm.lifetime.end.p0(i64 8, ptr nonnull %4) #3
  ret void
}